; Function Attrs: nounwind uwtable
define void @Wlc_NtkPrintConflict(ptr noundef %0, ptr noundef readonly captures(none) %1) local_unnamed_addr #0 {
  %puts = tail call i32 @puts(ptr nonnull dereferenceable(1) @str.1)
  %3 = getelementptr i8, ptr %1, i64 4
  %.val1011 = load i32, ptr %3, align 4, !tbaa !26
  %4 = icmp sgt i32 %.val1011, 0
  br i1 %4, label %.lr.ph, label %.critedge

.lr.ph:                                           ; preds = %2
  %5 = getelementptr i8, ptr %1, i64 8
  br label %6

6:                                                ; preds = %.lr.ph, %6
  %indvars.iv = phi i64 [ 0, %.lr.ph ], [ %indvars.iv.next, %6 ]
  %.val = load ptr, ptr %5, align 8, !tbaa !3
  %7 = getelementptr inbounds nuw i32, ptr %.val, i64 %indvars.iv
  %8 = load i32, ptr %7, align 4, !tbaa !10
  %9 = ashr i32 %8, 11
  %10 = tail call ptr @Wlc_ObjName(ptr noundef %0, i32 noundef %9) #26
  %11 = lshr i32 %8, 1
  %12 = and i32 %11, 1023
  %13 = trunc nuw nsw i64 %indvars.iv to i32
  %14 = tail call i32 (ptr, ...) @printf(ptr noundef nonnull dereferenceable(1) @.str.7, i32 noundef %13, i32 noundef %8, i32 noundef %9, ptr noundef %10, i32 noundef %12)
  %indvars.iv.next = add nuw nsw i64 %indvars.iv, 1
  %.val10 = load i32, ptr %3, align 4, !tbaa !26
  %15 = sext i32 %.val10 to i64
  %16 = icmp slt i64 %indvars.iv.next, %15
  br i1 %16, label %6, label %.critedge, !llvm.loop !128

.critedge:                                        ; preds = %6, %2
  ret void
}